_ZN10RVNGocument14verifyPasswordEP14RVNGInputStreamPKc
_ZN10RVNGocument16parseSubDocumentEP14RVNGInputStreamP20RVNGDocumentInterface13RVNGFileFormat
_ZN10RVNGocument21isFileFormatSupportedEP14RVNGInputStream
_ZN10RVNGocument5parseEP14RVNGInputStreamP20RVNGDocumentInterfacePKc
_ZN11RVNGPropertyD2Ev
_ZN13RVNGBinaryData5clearEv
_ZN13RVNGBinaryData6appendEh
_ZN13RVNGBinaryData6appendEPKhm
_ZN13RVNGBinaryData6appendERKS_
_ZN13RVNGBinaryDataaSERKS_
_ZN13RVNGBinaryDataC1EPKhm
_ZN13RVNGBinaryDataC1ERKS_
_ZN13RVNGBinaryDataC1Ev
_ZN13RVNGBinaryDataC2EPKhm
_ZN13RVNGBinaryDataC2ERKS_
_ZN13RVNGBinaryDataC2Ev
_ZN13RVNGBinaryDataD1Ev
_ZN13RVNGBinaryDataD2Ev
_ZN15RVNGPropertyList4Iter3keyEv
_ZN15RVNGPropertyList4Iter4lastEv
_ZN15RVNGPropertyList4Iter4nextEv
_ZN15RVNGPropertyList4Iter6rewindEv
_ZN15RVNGPropertyList4IterC1ERKS_
_ZN15RVNGPropertyList4IterC2ERKS_
_ZN15RVNGPropertyList4IterD0Ev
_ZN15RVNGPropertyList4IterD1Ev
_ZN15RVNGPropertyList4IterD2Ev
_ZN15RVNGPropertyList5clearEv
_ZN15RVNGPropertyList6insertEPKcb
_ZN15RVNGPropertyList6insertEPKcd7RVNGUnit
_ZN15RVNGPropertyList6insertEPKci
_ZN15RVNGPropertyList6insertEPKcP11RVNGProperty
_ZN15RVNGPropertyList6insertEPKcRK9RVNGString
_ZN15RVNGPropertyList6insertEPKcS1_
_ZN15RVNGPropertyList6removeEPKc
_ZN15RVNGPropertyListaSERKS_
_ZN15RVNGPropertyListC1ERKS_
_ZN15RVNGPropertyListC1Ev
_ZN15RVNGPropertyListC2ERKS_
_ZN15RVNGPropertyListC2Ev
_ZN15RVNGPropertyListD0Ev
_ZN15RVNGPropertyListD1Ev
_ZN15RVNGPropertyListD2Ev
_ZN18RVNGPropertyFactory10newIntPropEi
_ZN18RVNGPropertyFactory11newBoolPropEb
_ZN18RVNGPropertyFactory11newInchPropEd
_ZN18RVNGPropertyFactory11newTwipPropEd
_ZN18RVNGPropertyFactory12newPointPropEd
_ZN18RVNGPropertyFactory13newStringPropEPKc
_ZN18RVNGPropertyFactory13newStringPropERK9RVNGString
_ZN18RVNGPropertyFactory14newPercentPropEd
_ZN21RVNGPropertyListVector4Iter4lastEv
_ZN21RVNGPropertyListVector4Iter4nextEv
_ZN21RVNGPropertyListVector4Iter6rewindEv
_ZN21RVNGPropertyListVector4IterC1ERKS_
_ZN21RVNGPropertyListVector4IterC2ERKS_
_ZN21RVNGPropertyListVector4IterD0Ev
_ZN21RVNGPropertyListVector4IterD1Ev
_ZN21RVNGPropertyListVector4IterD2Ev
_ZN21RVNGPropertyListVector6appendERK15RVNGPropertyList
_ZN21RVNGPropertyListVector6appendERKS_
_ZN21RVNGPropertyListVectoraSERKS_
_ZN21RVNGPropertyListVectorC1ERKS_
_ZN21RVNGPropertyListVectorC1Ev
_ZN21RVNGPropertyListVectorC2ERKS_
_ZN21RVNGPropertyListVectorC2Ev
_ZN21RVNGPropertyListVectorD0Ev
_ZN21RVNGPropertyListVectorD1Ev
_ZN21RVNGPropertyListVectorD2Ev
_ZN9RVNGString4Iter4lastEv
_ZN9RVNGString4Iter4nextEv
_ZN9RVNGString4Iter6rewindEv
_ZN9RVNGString4IterC1ERKS_
_ZN9RVNGString4IterC2ERKS_
_ZN9RVNGString4IterD0Ev
_ZN9RVNGString4IterD1Ev
_ZN9RVNGString4IterD2Ev
_ZN9RVNGString5clearEv
_ZN9RVNGString6appendEc
_ZN9RVNGString6appendEPKc
_ZN9RVNGString6appendERKS_
_ZN9RVNGString7sprintfEPKcz
_ZN9RVNGStringaSEPKc
_ZN9RVNGStringaSERKS_
_ZN9RVNGStringC1EPKc
_ZN9RVNGStringC1ERKS_b
_ZN9RVNGStringC1Ev
_ZN9RVNGStringC2EPKc
_ZN9RVNGStringC2ERKS_b
_ZN9RVNGStringC2Ev
_ZN9RVNGStringD1Ev
_ZN9RVNGStringD2Ev
_ZNK13RVNGBinaryData13getBase64DataEv
_ZNK13RVNGBinaryData13getDataBufferEv
_ZNK13RVNGBinaryData13getDataStreamEv
_ZNK13RVNGBinaryData4sizeEv
_ZNK15RVNGPropertyList4IterclEv
_ZNK15RVNGPropertyListixEPKc
_ZNK21RVNGPropertyListVector4IterclEv
_ZNK21RVNGPropertyListVector5countEv
_ZNK21RVNGPropertyListVectorixEm
_ZNK9RVNGString3lenEv
_ZNK9RVNGString4cstrEv
_ZNK9RVNGString4IterclEv
_ZNK9RVNGStringeqEPKc
_ZNK9RVNGStringeqERKS_
_ZTI15RVNGPropertyList
_ZTI21RVNGPropertyListVector
_ZTIN15RVNGPropertyList4IterE
_ZTIN21RVNGPropertyListVector4IterE
_ZTIN9RVNGString4IterE
_ZTS15RVNGPropertyList
_ZTS21RVNGPropertyListVector
_ZTSN15RVNGPropertyList4IterE
_ZTSN21RVNGPropertyListVector4IterE
_ZTSN9RVNGString4IterE
_ZTV11RVNGProperty
_ZTV15RVNGPropertyList
_ZTV21RVNGPropertyListVector
_ZTVN15RVNGPropertyList4IterE
_ZTVN21RVNGPropertyListVector4IterE
_ZTVN9RVNGString4IterE
