_ZN10WPDocument14verifyPasswordEP14WPXInputStreamPKc
_ZN10WPDocument16parseSubDocumentEP14WPXInputStreamP20WPXDocumentInterface13WPDFileFormat
_ZN10WPDocument21isFileFormatSupportedEP14WPXInputStream
_ZN10WPDocument5parseEP14WPXInputStreamP20WPXDocumentInterfacePKc
_ZN11WPXPropertyD2Ev
_ZN13WPXBinaryData5clearEv
_ZN13WPXBinaryData6appendEh
_ZN13WPXBinaryData6appendEPKhm
_ZN13WPXBinaryData6appendERKS_
_ZN13WPXBinaryDataaSERKS_
_ZN13WPXBinaryDataC1EPKhm
_ZN13WPXBinaryDataC1ERKS_
_ZN13WPXBinaryDataC1Ev
_ZN13WPXBinaryDataC2EPKhm
_ZN13WPXBinaryDataC2ERKS_
_ZN13WPXBinaryDataC2Ev
_ZN13WPXBinaryDataD1Ev
_ZN13WPXBinaryDataD2Ev
_ZN15WPXPropertyList4Iter3keyEv
_ZN15WPXPropertyList4Iter4lastEv
_ZN15WPXPropertyList4Iter4nextEv
_ZN15WPXPropertyList4Iter6rewindEv
_ZN15WPXPropertyList4IterC1ERKS_
_ZN15WPXPropertyList4IterC2ERKS_
_ZN15WPXPropertyList4IterD0Ev
_ZN15WPXPropertyList4IterD1Ev
_ZN15WPXPropertyList4IterD2Ev
_ZN15WPXPropertyList5clearEv
_ZN15WPXPropertyList6insertEPKcb
_ZN15WPXPropertyList6insertEPKcd7WPXUnit
_ZN15WPXPropertyList6insertEPKci
_ZN15WPXPropertyList6insertEPKcP11WPXProperty
_ZN15WPXPropertyList6insertEPKcRK9WPXString
_ZN15WPXPropertyList6insertEPKcS1_
_ZN15WPXPropertyList6removeEPKc
_ZN15WPXPropertyListaSERKS_
_ZN15WPXPropertyListC1ERKS_
_ZN15WPXPropertyListC1Ev
_ZN15WPXPropertyListC2ERKS_
_ZN15WPXPropertyListC2Ev
_ZN15WPXPropertyListD0Ev
_ZN15WPXPropertyListD1Ev
_ZN15WPXPropertyListD2Ev
_ZN18WPXPropertyFactory10newIntPropEi
_ZN18WPXPropertyFactory11newBoolPropEb
_ZN18WPXPropertyFactory11newInchPropEd
_ZN18WPXPropertyFactory11newTwipPropEd
_ZN18WPXPropertyFactory12newPointPropEd
_ZN18WPXPropertyFactory13newStringPropEPKc
_ZN18WPXPropertyFactory13newStringPropERK9WPXString
_ZN18WPXPropertyFactory14newPercentPropEd
_ZN21WPXPropertyListVector4Iter4lastEv
_ZN21WPXPropertyListVector4Iter4nextEv
_ZN21WPXPropertyListVector4Iter6rewindEv
_ZN21WPXPropertyListVector4IterC1ERKS_
_ZN21WPXPropertyListVector4IterC2ERKS_
_ZN21WPXPropertyListVector4IterD0Ev
_ZN21WPXPropertyListVector4IterD1Ev
_ZN21WPXPropertyListVector4IterD2Ev
_ZN21WPXPropertyListVector6appendERK15WPXPropertyList
_ZN21WPXPropertyListVector6appendERKS_
_ZN21WPXPropertyListVectoraSERKS_
_ZN21WPXPropertyListVectorC1ERKS_
_ZN21WPXPropertyListVectorC1Ev
_ZN21WPXPropertyListVectorC2ERKS_
_ZN21WPXPropertyListVectorC2Ev
_ZN21WPXPropertyListVectorD0Ev
_ZN21WPXPropertyListVectorD1Ev
_ZN21WPXPropertyListVectorD2Ev
_ZN9WPXString4Iter4lastEv
_ZN9WPXString4Iter4nextEv
_ZN9WPXString4Iter6rewindEv
_ZN9WPXString4IterC1ERKS_
_ZN9WPXString4IterC2ERKS_
_ZN9WPXString4IterD0Ev
_ZN9WPXString4IterD1Ev
_ZN9WPXString4IterD2Ev
_ZN9WPXString5clearEv
_ZN9WPXString6appendEc
_ZN9WPXString6appendEPKc
_ZN9WPXString6appendERKS_
_ZN9WPXString7sprintfEPKcz
_ZN9WPXStringaSEPKc
_ZN9WPXStringaSERKS_
_ZN9WPXStringC1EPKc
_ZN9WPXStringC1ERKS_b
_ZN9WPXStringC1Ev
_ZN9WPXStringC2EPKc
_ZN9WPXStringC2ERKS_b
_ZN9WPXStringC2Ev
_ZN9WPXStringD1Ev
_ZN9WPXStringD2Ev
_ZNK13WPXBinaryData13getBase64DataEv
_ZNK13WPXBinaryData13getDataBufferEv
_ZNK13WPXBinaryData13getDataStreamEv
_ZNK13WPXBinaryData4sizeEv
_ZNK15WPXPropertyList4IterclEv
_ZNK15WPXPropertyListixEPKc
_ZNK21WPXPropertyListVector4IterclEv
_ZNK21WPXPropertyListVector5countEv
_ZNK21WPXPropertyListVectorixEm
_ZNK9WPXString3lenEv
_ZNK9WPXString4cstrEv
_ZNK9WPXString4IterclEv
_ZNK9WPXStringeqEPKc
_ZNK9WPXStringeqERKS_
_ZTI15WPXPropertyList
_ZTI21WPXPropertyListVector
_ZTIN15WPXPropertyList4IterE
_ZTIN21WPXPropertyListVector4IterE
_ZTIN9WPXString4IterE
_ZTS15WPXPropertyList
_ZTS21WPXPropertyListVector
_ZTSN15WPXPropertyList4IterE
_ZTSN21WPXPropertyListVector4IterE
_ZTSN9WPXString4IterE
_ZTV11WPXProperty
_ZTV15WPXPropertyList
_ZTV21WPXPropertyListVector
_ZTVN15WPXPropertyList4IterE
_ZTVN21WPXPropertyListVector4IterE
_ZTVN9WPXString4IterE
